target datalayout = "e-m:e-p270:32:32-p271:32:32-p272:64:64-i64:64-i128:128-f80:128-n8:16:32:64-S128"
target triple = "x86_64-pc-linux-gnu"

%struct._object = type { %union.anon, ptr }
%union.anon = type { i64 }
%struct.PyVarObject = type { %struct._object, i64 }
%struct.dequeobject = type { %struct.PyVarObject, ptr, ptr, i64, i64, i64, i64, i64, [16 x ptr], ptr }
%struct.BLOCK = type { ptr, [64 x ptr], ptr }

@PyExc_IndexError = external global ptr, align 8
@.str.10 = private unnamed_addr constant [24 x i8] c"pop from an empty deque\00", align 1

; Function Attrs: inlinehint nounwind uwtable
define internal void @freeblock(ptr noundef %0, ptr noundef %1) #3 {
  %3 = alloca ptr, align 8
  %4 = alloca ptr, align 8
  store ptr %0, ptr %3, align 8, !tbaa !43
  store ptr %1, ptr %4, align 8, !tbaa !51
  %5 = load ptr, ptr %3, align 8, !tbaa !43
  %6 = getelementptr inbounds nuw %struct.dequeobject, ptr %5, i32 0, i32 7
  %7 = load i64, ptr %6, align 8, !tbaa !50
  %8 = icmp slt i64 %7, 16
  br i1 %8, label %9, label %21

9:                                                ; preds = %2
  %10 = load ptr, ptr %4, align 8, !tbaa !51
  %11 = load ptr, ptr %3, align 8, !tbaa !43
  %12 = getelementptr inbounds nuw %struct.dequeobject, ptr %11, i32 0, i32 8
  %13 = load ptr, ptr %3, align 8, !tbaa !43
  %14 = getelementptr inbounds nuw %struct.dequeobject, ptr %13, i32 0, i32 7
  %15 = load i64, ptr %14, align 8, !tbaa !50
  %16 = getelementptr [16 x ptr], ptr %12, i64 0, i64 %15
  store ptr %10, ptr %16, align 8, !tbaa !51
  %17 = load ptr, ptr %3, align 8, !tbaa !43
  %18 = getelementptr inbounds nuw %struct.dequeobject, ptr %17, i32 0, i32 7
  %19 = load i64, ptr %18, align 8, !tbaa !50
  %20 = add i64 %19, 1
  store i64 %20, ptr %18, align 8, !tbaa !50
  br label %23

21:                                               ; preds = %2
  %22 = load ptr, ptr %4, align 8, !tbaa !51
  call void @PyMem_Free(ptr noundef %22)
  br label %23

23:                                               ; preds = %21, %9
  ret void
}

; Function Attrs: inlinehint nounwind uwtable
define internal void @Py_SET_SIZE(ptr noundef %0, i64 noundef %1) #3 {
  %3 = alloca ptr, align 8
  %4 = alloca i64, align 8
  store ptr %0, ptr %3, align 8, !tbaa !9
  store i64 %1, ptr %4, align 8, !tbaa !24
  %5 = load i64, ptr %4, align 8, !tbaa !24
  %6 = load ptr, ptr %3, align 8, !tbaa !9
  %7 = getelementptr inbounds nuw %struct.PyVarObject, ptr %6, i32 0, i32 1
  store i64 %5, ptr %7, align 8, !tbaa !72
  ret void
}

; Function Attrs: inlinehint nounwind uwtable
define internal i64 @Py_SIZE(ptr noundef %0) #3 {
  %2 = alloca ptr, align 8
  store ptr %0, ptr %2, align 8, !tbaa !4
  %3 = load ptr, ptr %2, align 8, !tbaa !4
  %4 = getelementptr inbounds nuw %struct.PyVarObject, ptr %3, i32 0, i32 1
  %5 = load i64, ptr %4, align 8, !tbaa !72
  ret i64 %5
}

; Function Attrs: nounwind uwtable
define internal ptr @deque_popleft_impl(ptr noundef %0) #0 {
  %2 = alloca ptr, align 8
  %3 = alloca ptr, align 8
  %4 = alloca ptr, align 8
  %5 = alloca ptr, align 8
  %6 = alloca i32, align 4
  store ptr %0, ptr %3, align 8, !tbaa !43
  call void @llvm.lifetime.start.p0(i64 8, ptr %4) #7
  call void @llvm.lifetime.start.p0(i64 8, ptr %5) #7
  %7 = load ptr, ptr %3, align 8, !tbaa !43
  %8 = call i64 @Py_SIZE(ptr noundef %7)
  %9 = icmp eq i64 %8, 0
  br i1 %9, label %10, label %12

10:                                               ; preds = %1
  %11 = load ptr, ptr @PyExc_IndexError, align 8, !tbaa !4
  call void @PyErr_SetString(ptr noundef %11, ptr noundef @.str.10)
  store ptr null, ptr %2, align 8
  store i32 1, ptr %6, align 4
  br label %65

12:                                               ; preds = %1
  %13 = load ptr, ptr %3, align 8, !tbaa !43
  %14 = getelementptr inbounds nuw %struct.dequeobject, ptr %13, i32 0, i32 1
  %15 = load ptr, ptr %14, align 8, !tbaa !48
  %16 = getelementptr inbounds nuw %struct.BLOCK, ptr %15, i32 0, i32 1
  %17 = load ptr, ptr %3, align 8, !tbaa !43
  %18 = getelementptr inbounds nuw %struct.dequeobject, ptr %17, i32 0, i32 3
  %19 = load i64, ptr %18, align 8, !tbaa !56
  %20 = getelementptr [64 x ptr], ptr %16, i64 0, i64 %19
  %21 = load ptr, ptr %20, align 8, !tbaa !4
  store ptr %21, ptr %4, align 8, !tbaa !4
  %22 = load ptr, ptr %3, align 8, !tbaa !43
  %23 = getelementptr inbounds nuw %struct.dequeobject, ptr %22, i32 0, i32 3
  %24 = load i64, ptr %23, align 8, !tbaa !56
  %25 = add i64 %24, 1
  store i64 %25, ptr %23, align 8, !tbaa !56
  %26 = load ptr, ptr %3, align 8, !tbaa !43
  %27 = load ptr, ptr %3, align 8, !tbaa !43
  %28 = call i64 @Py_SIZE(ptr noundef %27)
  %29 = sub i64 %28, 1
  call void @Py_SET_SIZE(ptr noundef %26, i64 noundef %29)
  %30 = load ptr, ptr %3, align 8, !tbaa !43
  %31 = getelementptr inbounds nuw %struct.dequeobject, ptr %30, i32 0, i32 5
  %32 = load i64, ptr %31, align 8, !tbaa !63
  %33 = add i64 %32, 1
  store i64 %33, ptr %31, align 8, !tbaa !63
  %34 = load ptr, ptr %3, align 8, !tbaa !43
  %35 = getelementptr inbounds nuw %struct.dequeobject, ptr %34, i32 0, i32 3
  %36 = load i64, ptr %35, align 8, !tbaa !56
  %37 = icmp eq i64 %36, 64
  br i1 %37, label %38, label %63

38:                                               ; preds = %12
  %39 = load ptr, ptr %3, align 8, !tbaa !43
  %40 = call i64 @Py_SIZE(ptr noundef %39)
  %41 = icmp ne i64 %40, 0
  br i1 %41, label %42, label %57

42:                                               ; preds = %38
  %43 = load ptr, ptr %3, align 8, !tbaa !43
  %44 = getelementptr inbounds nuw %struct.dequeobject, ptr %43, i32 0, i32 1
  %45 = load ptr, ptr %44, align 8, !tbaa !48
  %46 = getelementptr inbounds nuw %struct.BLOCK, ptr %45, i32 0, i32 2
  %47 = load ptr, ptr %46, align 8, !tbaa !58
  store ptr %47, ptr %5, align 8, !tbaa !51
  %48 = load ptr, ptr %3, align 8, !tbaa !43
  %49 = load ptr, ptr %3, align 8, !tbaa !43
  %50 = getelementptr inbounds nuw %struct.dequeobject, ptr %49, i32 0, i32 1
  %51 = load ptr, ptr %50, align 8, !tbaa !48
  call void @freeblock(ptr noundef %48, ptr noundef %51)
  %52 = load ptr, ptr %5, align 8, !tbaa !51
  %53 = load ptr, ptr %3, align 8, !tbaa !43
  %54 = getelementptr inbounds nuw %struct.dequeobject, ptr %53, i32 0, i32 1
  store ptr %52, ptr %54, align 8, !tbaa !48
  %55 = load ptr, ptr %3, align 8, !tbaa !43
  %56 = getelementptr inbounds nuw %struct.dequeobject, ptr %55, i32 0, i32 3
  store i64 0, ptr %56, align 8, !tbaa !56
  br label %62

57:                                               ; preds = %38
  %58 = load ptr, ptr %3, align 8, !tbaa !43
  %59 = getelementptr inbounds nuw %struct.dequeobject, ptr %58, i32 0, i32 3
  store i64 32, ptr %59, align 8, !tbaa !56
  %60 = load ptr, ptr %3, align 8, !tbaa !43
  %61 = getelementptr inbounds nuw %struct.dequeobject, ptr %60, i32 0, i32 4
  store i64 31, ptr %61, align 8, !tbaa !61
  br label %62

62:                                               ; preds = %57, %42
  br label %63

63:                                               ; preds = %62, %12
  %64 = load ptr, ptr %4, align 8, !tbaa !4
  store ptr %64, ptr %2, align 8
  store i32 1, ptr %6, align 4
  br label %65

65:                                               ; preds = %63, %10
  call void @llvm.lifetime.end.p0(i64 8, ptr %5) #7
  call void @llvm.lifetime.end.p0(i64 8, ptr %4) #7
  %66 = load ptr, ptr %2, align 8
  ret ptr %66
}

; Function Attrs: nounwind uwtable
define internal ptr @deque_popleft(ptr noundef %0, ptr noundef %1) #0 {
  %3 = alloca ptr, align 8
  %4 = alloca ptr, align 8
  %5 = alloca ptr, align 8
  store ptr %0, ptr %3, align 8, !tbaa !4
  store ptr %1, ptr %4, align 8, !tbaa !4
  call void @llvm.lifetime.start.p0(i64 8, ptr %5) #7
  store ptr null, ptr %5, align 8, !tbaa !4
  %6 = load ptr, ptr %3, align 8, !tbaa !4
  %7 = call ptr @deque_popleft_impl(ptr noundef %6)
  store ptr %7, ptr %5, align 8, !tbaa !4
  %8 = load ptr, ptr %5, align 8, !tbaa !4
  call void @llvm.lifetime.end.p0(i64 8, ptr %5) #7
  ret ptr %8
}