; Function Attrs: nounwind uwtable
define internal ptr @deque_popleft(ptr noundef captures(none) %0, ptr readnone captures(none) %1) #0 {
  %3 = getelementptr i8, ptr %0, i64 16
  %.val20.i = load i64, ptr %3, align 8, !tbaa !52
  %4 = icmp eq i64 %.val20.i, 0
  br i1 %4, label %5, label %7

5:                                                ; preds = %2
  %6 = load ptr, ptr @PyExc_IndexError, align 8, !tbaa !21
  tail call void @PyErr_SetString(ptr noundef %6, ptr noundef nonnull @.str.10) #9
  br label %deque_popleft_impl.exit

7:                                                ; preds = %2
  %8 = getelementptr inbounds nuw i8, ptr %0, i64 24
  %9 = load ptr, ptr %8, align 8, !tbaa !39
  %10 = getelementptr inbounds nuw i8, ptr %9, i64 8
  %11 = getelementptr inbounds nuw i8, ptr %0, i64 40
  %12 = load i64, ptr %11, align 8, !tbaa !46
  %13 = getelementptr [64 x ptr], ptr %10, i64 0, i64 %12
  %14 = load ptr, ptr %13, align 8, !tbaa !21
  %15 = add i64 %12, 1
  store i64 %15, ptr %11, align 8, !tbaa !46
  %16 = add i64 %.val20.i, -1
  store i64 %16, ptr %3, align 8, !tbaa !52
  %17 = getelementptr inbounds nuw i8, ptr %0, i64 56
  %18 = load i64, ptr %17, align 8, !tbaa !53
  %19 = add i64 %18, 1
  store i64 %19, ptr %17, align 8, !tbaa !53
  %20 = icmp eq i64 %15, 64
  br i1 %20, label %21, label %deque_popleft_impl.exit

21:                                               ; preds = %7
  %.not.i = icmp eq i64 %16, 0
  br i1 %.not.i, label %33, label %22

22:                                               ; preds = %21
  %23 = getelementptr inbounds nuw i8, ptr %9, i64 520
  %24 = load ptr, ptr %23, align 8, !tbaa !54
  %25 = getelementptr inbounds nuw i8, ptr %0, i64 72
  %26 = load i64, ptr %25, align 8, !tbaa !40
  %27 = icmp slt i64 %26, 16
  br i1 %27, label %28, label %32

28:                                               ; preds = %22
  %29 = getelementptr inbounds nuw i8, ptr %0, i64 80
  %30 = getelementptr [16 x ptr], ptr %29, i64 0, i64 %26
  store ptr %9, ptr %30, align 8, !tbaa !41
  %31 = add nsw i64 %26, 1
  store i64 %31, ptr %25, align 8, !tbaa !40
  br label %freeblock.exit.i

32:                                               ; preds = %22
  tail call void @PyMem_Free(ptr noundef nonnull %9) #9
  br label %freeblock.exit.i

freeblock.exit.i:                                 ; preds = %32, %28
  store ptr %24, ptr %8, align 8, !tbaa !39
  store i64 0, ptr %11, align 8, !tbaa !46
  br label %deque_popleft_impl.exit

33:                                               ; preds = %21
  store i64 32, ptr %11, align 8, !tbaa !46
  %34 = getelementptr inbounds nuw i8, ptr %0, i64 48
  store i64 31, ptr %34, align 8, !tbaa !50
  br label %deque_popleft_impl.exit

deque_popleft_impl.exit:                          ; preds = %5, %7, %freeblock.exit.i, %33
  %.0.i = phi ptr [ null, %5 ], [ %14, %freeblock.exit.i ], [ %14, %33 ], [ %14, %7 ]
  ret ptr %.0.i
}